target datalayout = "e-m:e-p270:32:32-p271:32:32-p272:64:64-i64:64-i128:128-f80:128-n8:16:32:64-S128"
target triple = "x86_64-pc-linux-gnu"

%"class.boost::json::storage_ptr" = type { i64 }
%"class.boost::container::pmr::memory_resource" = type { ptr }
%"class.boost::json::detail::stack" = type { %"class.boost::json::storage_ptr", i64, i64, ptr, ptr, ptr }
%"struct.boost::json::serialize_options" = type { i8 }
%"class.boost::json::detail::const_stream" = type { ptr, ptr }
%"struct.boost::json::detail::writer" = type <{ %"class.boost::json::detail::stack", %"struct.boost::json::serialize_options", [7 x i8], %"class.boost::json::detail::const_stream", ptr, [28 x i8], [4 x i8] }>
%"struct.boost::json::detail::shared_resource" = type { %"class.boost::container::pmr::memory_resource", %"struct.std::atomic.304" }
%"struct.std::atomic.304" = type { %"struct.std::__atomic_base.305" }
%"struct.std::__atomic_base.305" = type { i64 }

@_ZN5boost4json6detail5stackC1ENS0_11storage_ptrEPhm = hidden unnamed_addr alias void (ptr, ptr, ptr, i64), ptr @_ZN5boost4json6detail5stackC2ENS0_11storage_ptrEPhm

; Function Attrs: alwaysinline mustprogress nounwind uwtable
define linkonce_odr hidden noundef i64 @_ZNSt13__atomic_baseImE9fetch_subEmSt12memory_order(ptr noundef nonnull align 8 dereferenceable(8) %0, i64 noundef %1, i32 noundef %2) #19 comdat align 2 {
  %4 = alloca ptr, align 8
  %5 = alloca i64, align 8
  %6 = alloca i32, align 4
  %7 = alloca i64, align 8
  %8 = alloca i64, align 8
  store ptr %0, ptr %4, align 8, !tbaa !3
  store i64 %1, ptr %5, align 8, !tbaa !16
  store i32 %2, ptr %6, align 4, !tbaa !288
  %9 = load ptr, ptr %4, align 8
  %10 = getelementptr inbounds nuw %"struct.std::__atomic_base.305", ptr %9, i32 0, i32 0
  %11 = load i32, ptr %6, align 4, !tbaa !288
  %12 = load i64, ptr %5, align 8, !tbaa !16
  store i64 %12, ptr %7, align 8, !tbaa !16
  switch i32 %11, label %13 [
    i32 1, label %16
    i32 2, label %16
    i32 3, label %19
    i32 4, label %22
    i32 5, label %25
  ]

13:                                               ; preds = %3
  %14 = load i64, ptr %7, align 8
  %15 = atomicrmw sub ptr %10, i64 %14 monotonic, align 8
  store i64 %15, ptr %8, align 8
  br label %28

16:                                               ; preds = %3, %3
  %17 = load i64, ptr %7, align 8
  %18 = atomicrmw sub ptr %10, i64 %17 acquire, align 8
  store i64 %18, ptr %8, align 8
  br label %28

19:                                               ; preds = %3
  %20 = load i64, ptr %7, align 8
  %21 = atomicrmw sub ptr %10, i64 %20 release, align 8
  store i64 %21, ptr %8, align 8
  br label %28

22:                                               ; preds = %3
  %23 = load i64, ptr %7, align 8
  %24 = atomicrmw sub ptr %10, i64 %23 acq_rel, align 8
  store i64 %24, ptr %8, align 8
  br label %28

25:                                               ; preds = %3
  %26 = load i64, ptr %7, align 8
  %27 = atomicrmw sub ptr %10, i64 %26 seq_cst, align 8
  store i64 %27, ptr %8, align 8
  br label %28

28:                                               ; preds = %25, %22, %19, %16, %13
  %29 = load i64, ptr %8, align 8, !tbaa !16
  ret i64 %29
}

; Function Attrs: mustprogress nounwind uwtable
define linkonce_odr hidden noundef ptr @_ZNK5boost4json11storage_ptr10get_sharedEv(ptr noundef nonnull align 8 dereferenceable(8) %0) #2 comdat align 2 {
  %2 = alloca ptr, align 8
  store ptr %0, ptr %2, align 8, !tbaa !3
  %3 = load ptr, ptr %2, align 8
  %4 = getelementptr inbounds nuw %"class.boost::json::storage_ptr", ptr %3, i32 0, i32 0
  %5 = load i64, ptr %4, align 8, !tbaa !35
  %6 = and i64 %5, -4
  %7 = inttoptr i64 %6 to ptr
  ret ptr %7
}

; Function Attrs: mustprogress nounwind uwtable
define linkonce_odr hidden noundef zeroext i1 @_ZNK5boost4json11storage_ptr9is_sharedEv(ptr noundef nonnull align 8 dereferenceable(8) %0) #2 comdat align 2 {
  %2 = alloca ptr, align 8
  store ptr %0, ptr %2, align 8, !tbaa !3
  %3 = load ptr, ptr %2, align 8
  %4 = getelementptr inbounds nuw %"class.boost::json::storage_ptr", ptr %3, i32 0, i32 0
  %5 = load i64, ptr %4, align 8, !tbaa !35
  %6 = and i64 %5, 1
  %7 = icmp ne i64 %6, 0
  ret i1 %7
}

; Function Attrs: mustprogress nounwind uwtable
define linkonce_odr hidden void @_ZNK5boost4json11storage_ptr7releaseEv(ptr noundef nonnull align 8 dereferenceable(8) %0) #2 comdat align 2 {
  %2 = alloca ptr, align 8
  %3 = alloca ptr, align 8
  store ptr %0, ptr %2, align 8, !tbaa !3
  %4 = load ptr, ptr %2, align 8
  %5 = call noundef zeroext i1 @_ZNK5boost4json11storage_ptr9is_sharedEv(ptr noundef nonnull align 8 dereferenceable(8) %4) #10
  br i1 %5, label %6, label %21

6:                                                ; preds = %1
  call void @llvm.lifetime.start.p0(i64 8, ptr %3) #10
  %7 = call noundef ptr @_ZNK5boost4json11storage_ptr10get_sharedEv(ptr noundef nonnull align 8 dereferenceable(8) %4) #10
  store ptr %7, ptr %3, align 8, !tbaa !3
  %8 = load ptr, ptr %3, align 8, !tbaa !3
  %9 = getelementptr inbounds nuw %"struct.boost::json::detail::shared_resource", ptr %8, i32 0, i32 1
  %10 = call noundef i64 @_ZNSt13__atomic_baseImE9fetch_subEmSt12memory_order(ptr noundef nonnull align 8 dereferenceable(8) %9, i64 noundef 1, i32 noundef 4) #10
  %11 = icmp eq i64 %10, 1
  br i1 %11, label %12, label %20

12:                                               ; preds = %6
  %13 = load ptr, ptr %3, align 8, !tbaa !3
  %14 = icmp eq ptr %13, null
  br i1 %14, label %19, label %15

15:                                               ; preds = %12
  %16 = load ptr, ptr %13, align 8, !tbaa !14
  %17 = getelementptr inbounds ptr, ptr %16, i64 1
  %18 = load ptr, ptr %17, align 8
  call void %18(ptr noundef nonnull align 8 dereferenceable(16) %13) #10
  br label %19

19:                                               ; preds = %15, %12
  br label %20

20:                                               ; preds = %19, %6
  call void @llvm.lifetime.end.p0(i64 8, ptr %3) #10
  br label %21

21:                                               ; preds = %20, %1
  ret void
}

; Function Attrs: mustprogress nounwind uwtable
define linkonce_odr hidden noundef i64 @_ZN5boost4json6detail8exchangeImiEET_RS3_T0_(ptr noundef nonnull align 8 dereferenceable(8) %0, i32 noundef %1) #2 comdat {
  %3 = alloca ptr, align 8
  %4 = alloca i32, align 4
  %5 = alloca i64, align 8
  store ptr %0, ptr %3, align 8, !tbaa !3
  store i32 %1, ptr %4, align 4, !tbaa !7
  call void @llvm.lifetime.start.p0(i64 8, ptr %5) #10
  %6 = load ptr, ptr %3, align 8, !tbaa !3
  %7 = load i64, ptr %6, align 8, !tbaa !16
  store i64 %7, ptr %5, align 8, !tbaa !16
  %8 = load i32, ptr %4, align 4, !tbaa !7
  %9 = sext i32 %8 to i64
  %10 = load ptr, ptr %3, align 8, !tbaa !3
  store i64 %9, ptr %10, align 8, !tbaa !16
  %11 = load i64, ptr %5, align 8, !tbaa !16
  call void @llvm.lifetime.end.p0(i64 8, ptr %5) #10
  ret i64 %11
}

; Function Attrs: mustprogress nounwind uwtable
define linkonce_odr hidden void @_ZN5boost4json11storage_ptrD2Ev(ptr noundef nonnull align 8 dereferenceable(8) %0) unnamed_addr #2 comdat align 2 {
  %2 = alloca ptr, align 8
  store ptr %0, ptr %2, align 8, !tbaa !3
  %3 = load ptr, ptr %2, align 8
  call void @_ZNK5boost4json11storage_ptr7releaseEv(ptr noundef nonnull align 8 dereferenceable(8) %3) #10
  ret void
}

; Function Attrs: mustprogress nounwind uwtable
define linkonce_odr hidden void @_ZN5boost4json11storage_ptrC2EOS1_(ptr noundef nonnull align 8 dereferenceable(8) %0, ptr noundef nonnull align 8 dereferenceable(8) %1) unnamed_addr #2 comdat align 2 {
  %3 = alloca ptr, align 8
  %4 = alloca ptr, align 8
  store ptr %0, ptr %3, align 8, !tbaa !3
  store ptr %1, ptr %4, align 8, !tbaa !3
  %5 = load ptr, ptr %3, align 8
  %6 = getelementptr inbounds nuw %"class.boost::json::storage_ptr", ptr %5, i32 0, i32 0
  %7 = load ptr, ptr %4, align 8, !tbaa !3
  %8 = getelementptr inbounds nuw %"class.boost::json::storage_ptr", ptr %7, i32 0, i32 0
  %9 = call noundef i64 @_ZN5boost4json6detail8exchangeImiEET_RS3_T0_(ptr noundef nonnull align 8 dereferenceable(8) %8, i32 noundef 0) #10
  store i64 %9, ptr %6, align 8, !tbaa !35
  ret void
}

; Function Attrs: mustprogress nounwind uwtable
define hidden void @_ZN5boost4json6detail6writerC2ENS0_11storage_ptrEPhmRKNS0_17serialize_optionsE(ptr noundef nonnull align 8 dereferenceable(108) %0, ptr noundef %1, ptr noundef %2, i64 noundef %3, ptr noundef nonnull align 1 dereferenceable(1) %4) unnamed_addr #2 align 2 {
  %6 = alloca ptr, align 8
  %7 = alloca ptr, align 8
  %8 = alloca ptr, align 8
  %9 = alloca i64, align 8
  %10 = alloca ptr, align 8
  %11 = alloca %"class.boost::json::storage_ptr", align 8
  store ptr %0, ptr %6, align 8, !tbaa !3
  store ptr %1, ptr %7, align 8, !tbaa !3
  store ptr %2, ptr %8, align 8, !tbaa !3
  store i64 %3, ptr %9, align 8, !tbaa !16
  store ptr %4, ptr %10, align 8, !tbaa !3
  %12 = load ptr, ptr %6, align 8
  %13 = getelementptr inbounds nuw %"struct.boost::json::detail::writer", ptr %12, i32 0, i32 0
  call void @_ZN5boost4json11storage_ptrC2EOS1_(ptr noundef nonnull align 8 dereferenceable(8) %11, ptr noundef nonnull align 8 dereferenceable(8) %1) #10
  %14 = load ptr, ptr %8, align 8, !tbaa !3
  %15 = load i64, ptr %9, align 8, !tbaa !16
  call void @_ZN5boost4json6detail5stackC1ENS0_11storage_ptrEPhm(ptr noundef nonnull align 8 dereferenceable(48) %13, ptr noundef %11, ptr noundef %14, i64 noundef %15) #10
  call void @_ZN5boost4json11storage_ptrD2Ev(ptr noundef nonnull align 8 dereferenceable(8) %11) #10
  %16 = getelementptr inbounds nuw %"struct.boost::json::detail::writer", ptr %12, i32 0, i32 1
  %17 = load ptr, ptr %10, align 8, !tbaa !3
  call void @llvm.memcpy.p0.p0.i64(ptr align 8 %16, ptr align 1 %17, i64 1, i1 false), !tbaa.struct !207
  %18 = getelementptr inbounds nuw %"struct.boost::json::detail::writer", ptr %12, i32 0, i32 4
  store ptr null, ptr %18, align 8, !tbaa !193
  ret void
}