; Function Attrs: mustprogress nofree norecurse nosync nounwind willreturn memory(argmem: readwrite) uwtable
define hidden void @_ZN5boost4json6detail6writerC2ENS0_11storage_ptrEPhmRKNS0_17serialize_optionsE(ptr nocapture noundef nonnull writeonly align 8 dereferenceable(108) %0, ptr nocapture noundef %1, ptr noundef %2, i64 noundef %3, ptr nocapture noundef nonnull readonly align 1 dereferenceable(1) %4) unnamed_addr #20 align 2 {
_ZN5boost4json11storage_ptrD2Ev.exit:
  %5 = load i64, ptr %1, align 8, !tbaa !11
  store i64 0, ptr %1, align 8, !tbaa !11
  store i64 %5, ptr %0, align 8, !tbaa !17
  %6 = getelementptr inbounds nuw i8, ptr %0, i64 8
  store i64 %3, ptr %6, align 8, !tbaa !351
  %7 = getelementptr inbounds nuw i8, ptr %0, i64 16
  %8 = getelementptr inbounds nuw i8, ptr %0, i64 32
  tail call void @llvm.memset.p0.i64(ptr noundef nonnull align 8 dereferenceable(16) %7, i8 0, i64 16, i1 false)
  store ptr %2, ptr %8, align 8, !tbaa !249
  %9 = getelementptr inbounds nuw i8, ptr %0, i64 40
  store ptr %2, ptr %9, align 8, !tbaa !352
  %10 = getelementptr inbounds nuw i8, ptr %0, i64 48
  %11 = load i8, ptr %4, align 1, !tbaa !158
  store i8 %11, ptr %10, align 8, !tbaa !158
  %12 = getelementptr inbounds nuw i8, ptr %0, i64 72
  store ptr null, ptr %12, align 8, !tbaa !339
  ret void
}